; Function Attrs: nofree norecurse nosync nounwind memory(readwrite, inaccessiblemem: none) uwtable
define void @ff_vvc_set_mvf(ptr noundef readonly captures(none) %0, i32 noundef %1, i32 noundef %2, i32 noundef %3, i32 noundef %4, ptr noundef readonly captures(none) %5) local_unnamed_addr #4 {
  %7 = getelementptr inbounds nuw i8, ptr %0, i64 4580552
  %8 = load ptr, ptr %7, align 8, !tbaa !30
  %9 = getelementptr inbounds nuw i8, ptr %8, i64 21576
  %10 = load ptr, ptr %9, align 8, !tbaa !71
  %11 = getelementptr inbounds nuw i8, ptr %8, i64 1936
  %12 = load ptr, ptr %11, align 8, !tbaa !72
  %13 = getelementptr inbounds nuw i8, ptr %12, i64 4048
  %14 = load i16, ptr %13, align 8, !tbaa !73
  %15 = zext i16 %14 to i32
  %16 = icmp sgt i32 %4, 0
  %17 = icmp sgt i32 %3, 0
  %or.cond = and i1 %16, %17
  br i1 %or.cond, label %.preheader.us, label %._crit_edge20

.preheader.us:                                    ; preds = %6, %._crit_edge.us
  %.019.us = phi i32 [ %29, %._crit_edge.us ], [ 0, %6 ]
  %18 = add nsw i32 %.019.us, %2
  %19 = ashr i32 %18, 2
  %20 = mul nsw i32 %19, %15
  br label %21

21:                                               ; preds = %.preheader.us, %21
  %.01718.us = phi i32 [ 0, %.preheader.us ], [ %27, %21 ]
  %22 = add nsw i32 %.01718.us, %1
  %23 = ashr i32 %22, 2
  %24 = add nsw i32 %23, %20
  %25 = sext i32 %24 to i64
  %26 = getelementptr inbounds %struct.MvField, ptr %10, i64 %25
  tail call void @llvm.memcpy.p0.p0.i64(ptr noundef nonnull align 8 dereferenceable(24) %26, ptr noundef nonnull align 8 dereferenceable(24) %5, i64 24, i1 false), !tbaa.struct !77
  %27 = add nuw nsw i32 %.01718.us, 4
  %28 = icmp slt i32 %27, %3
  br i1 %28, label %21, label %._crit_edge.us, !llvm.loop !78

._crit_edge.us:                                   ; preds = %21
  %29 = add nuw nsw i32 %.019.us, 4
  %30 = icmp slt i32 %29, %4
  br i1 %30, label %.preheader.us, label %._crit_edge20, !llvm.loop !79

._crit_edge20:                                    ; preds = %._crit_edge.us, %6
  ret void
}